target datalayout = "e-m:e-p270:32:32-p271:32:32-p272:64:64-i64:64-i128:128-f80:128-n8:16:32:64-S128"
target triple = "x86_64-pc-linux-gnu"

%"class.std::__cxx11::basic_string" = type { %"struct.std::__cxx11::basic_string<char>::_Alloc_hider", i64, %union.anon }
%"struct.std::__cxx11::basic_string<char>::_Alloc_hider" = type { ptr }
%union.anon = type { i64, [8 x i8] }
%class.Variable = type { ptr, %"class.std::vector.18", %"class.std::__cxx11::basic_string", ptr, ptr, i8, i8, i8, i8, i8, i8, ptr, i8, %class.CVQualifiers }
%"class.std::vector.18" = type { %"struct.std::_Vector_base.19" }
%"struct.std::_Vector_base.19" = type { %"struct.std::_Vector_base<Variable *, std::allocator<Variable *>>::_Vector_impl" }
%"struct.std::_Vector_base<Variable *, std::allocator<Variable *>>::_Vector_impl" = type { %"struct.std::_Vector_base<Variable *, std::allocator<Variable *>>::_Vector_impl_data" }
%"struct.std::_Vector_base<Variable *, std::allocator<Variable *>>::_Vector_impl_data" = type { ptr, ptr, ptr }
%class.CVQualifiers = type { ptr, i8, i8, %"class.std::vector.23", %"class.std::vector.23" }
%"class.std::vector.23" = type { %"struct.std::_Bvector_base" }
%"struct.std::_Bvector_base" = type { %"struct.std::_Bvector_base<std::allocator<bool>>::_Bvector_impl" }
%"struct.std::_Bvector_base<std::allocator<bool>>::_Bvector_impl" = type { %"struct.std::_Bvector_base<std::allocator<bool>>::_Bvector_impl_data" }
%"struct.std::_Bvector_base<std::allocator<bool>>::_Bvector_impl_data" = type { %"struct.std::_Bit_iterator", %"struct.std::_Bit_iterator", ptr }
%"struct.std::_Bit_iterator" = type { %"struct.std::_Bit_iterator_base.base", [4 x i8] }
%"struct.std::_Bit_iterator_base.base" = type <{ ptr, i32 }>
%class.Type = type { i32, ptr, i32, %"class.std::vector.28", %"class.std::vector.33", i32, i8, i8, i8, i8, i8, %"class.std::vector.38", %"class.std::vector.43" }
%"class.std::vector.28" = type { %"struct.std::_Vector_base.29" }
%"struct.std::_Vector_base.29" = type { %"struct.std::_Vector_base<unsigned int, std::allocator<unsigned int>>::_Vector_impl" }
%"struct.std::_Vector_base<unsigned int, std::allocator<unsigned int>>::_Vector_impl" = type { %"struct.std::_Vector_base<unsigned int, std::allocator<unsigned int>>::_Vector_impl_data" }
%"struct.std::_Vector_base<unsigned int, std::allocator<unsigned int>>::_Vector_impl_data" = type { ptr, ptr, ptr }
%"class.std::vector.33" = type { %"struct.std::_Vector_base.34" }
%"struct.std::_Vector_base.34" = type { %"struct.std::_Vector_base<const Type *, std::allocator<const Type *>>::_Vector_impl" }
%"struct.std::_Vector_base<const Type *, std::allocator<const Type *>>::_Vector_impl" = type { %"struct.std::_Vector_base<const Type *, std::allocator<const Type *>>::_Vector_impl_data" }
%"struct.std::_Vector_base<const Type *, std::allocator<const Type *>>::_Vector_impl_data" = type { ptr, ptr, ptr }
%"class.std::vector.38" = type { %"struct.std::_Vector_base.39" }
%"struct.std::_Vector_base.39" = type { %"struct.std::_Vector_base<CVQualifiers, std::allocator<CVQualifiers>>::_Vector_impl" }
%"struct.std::_Vector_base<CVQualifiers, std::allocator<CVQualifiers>>::_Vector_impl" = type { %"struct.std::_Vector_base<CVQualifiers, std::allocator<CVQualifiers>>::_Vector_impl_data" }
%"struct.std::_Vector_base<CVQualifiers, std::allocator<CVQualifiers>>::_Vector_impl_data" = type { ptr, ptr, ptr }
%"class.std::vector.43" = type { %"struct.std::_Vector_base.44" }
%"struct.std::_Vector_base.44" = type { %"struct.std::_Vector_base<int, std::allocator<int>>::_Vector_impl" }
%"struct.std::_Vector_base<int, std::allocator<int>>::_Vector_impl" = type { %"struct.std::_Vector_base<int, std::allocator<int>>::_Vector_impl_data" }
%"struct.std::_Vector_base<int, std::allocator<int>>::_Vector_impl_data" = type { ptr, ptr, ptr }

; Function Attrs: mustprogress uwtable
define dso_local noundef zeroext i1 @_ZNK8Variable20is_const_after_derefEi(ptr noundef nonnull align 8 dereferenceable(200) %0, i32 noundef %1) #6 align 2 {
  %3 = alloca i1, align 1
  %4 = alloca ptr, align 8
  %5 = alloca i32, align 4
  %6 = alloca i32, align 4
  %7 = alloca ptr, align 8
  store ptr %0, ptr %4, align 8, !tbaa !40
  store i32 %1, ptr %5, align 4, !tbaa !74
  %8 = load ptr, ptr %4, align 8
  %9 = load i32, ptr %5, align 4, !tbaa !74
  %10 = icmp slt i32 %9, 0
  br i1 %10, label %11, label %12

11:                                               ; preds = %2
  store i1 false, ptr %3, align 1
  br label %39

12:                                               ; preds = %2
  %13 = getelementptr inbounds nuw %class.Variable, ptr %8, i32 0, i32 13
  %14 = load i32, ptr %5, align 4, !tbaa !74
  %15 = call noundef zeroext i1 @_ZNK12CVQualifiers20is_const_after_derefEi(ptr noundef nonnull align 8 dereferenceable(96) %13, i32 noundef %14)
  br i1 %15, label %16, label %17

16:                                               ; preds = %12
  store i1 true, ptr %3, align 1
  br label %39

17:                                               ; preds = %12
  %18 = getelementptr inbounds nuw %class.Variable, ptr %8, i32 0, i32 3
  %19 = load ptr, ptr %18, align 8, !tbaa !49
  %20 = icmp ne ptr %19, null
  br i1 %20, label %21, label %38

21:                                               ; preds = %17
  call void @llvm.lifetime.start.p0(i64 4, ptr %6) #3
  call void @llvm.lifetime.start.p0(i64 8, ptr %7) #3
  %22 = getelementptr inbounds nuw %class.Variable, ptr %8, i32 0, i32 3
  %23 = load ptr, ptr %22, align 8, !tbaa !49
  store ptr %23, ptr %7, align 8, !tbaa !123
  store i32 0, ptr %6, align 4, !tbaa !74
  br label %24

24:                                               ; preds = %32, %21
  %25 = load i32, ptr %6, align 4, !tbaa !74
  %26 = load i32, ptr %5, align 4, !tbaa !74
  %27 = icmp slt i32 %25, %26
  br i1 %27, label %28, label %35

28:                                               ; preds = %24
  %29 = load ptr, ptr %7, align 8, !tbaa !123
  %30 = getelementptr inbounds nuw %class.Type, ptr %29, i32 0, i32 1
  %31 = load ptr, ptr %30, align 8, !tbaa !181
  store ptr %31, ptr %7, align 8, !tbaa !123
  br label %32

32:                                               ; preds = %28
  %33 = load i32, ptr %6, align 4, !tbaa !74
  %34 = add nsw i32 %33, 1
  store i32 %34, ptr %6, align 4, !tbaa !74
  br label %24, !llvm.loop !182

35:                                               ; preds = %24
  %36 = load ptr, ptr %7, align 8, !tbaa !123
  %37 = call noundef zeroext i1 @_ZNK4Type21is_const_struct_unionEv(ptr noundef nonnull align 8 dereferenceable(136) %36)
  store i1 %37, ptr %3, align 1
  call void @llvm.lifetime.end.p0(i64 8, ptr %7) #3
  call void @llvm.lifetime.end.p0(i64 4, ptr %6) #3
  br label %39

38:                                               ; preds = %17
  store i1 false, ptr %3, align 1
  br label %39

39:                                               ; preds = %38, %35, %16, %11
  %40 = load i1, ptr %3, align 1
  ret i1 %40
}

; Function Attrs: mustprogress nounwind uwtable
define linkonce_odr dso_local noundef zeroext i1 @_ZNK8Variable14is_union_fieldEv(ptr noundef nonnull align 8 dereferenceable(200) %0) #4 comdat align 2 {
  %2 = alloca ptr, align 8
  store ptr %0, ptr %2, align 8, !tbaa !40
  %3 = load ptr, ptr %2, align 8
  %4 = getelementptr inbounds nuw %class.Variable, ptr %3, i32 0, i32 11
  %5 = load ptr, ptr %4, align 8, !tbaa !86
  %6 = icmp ne ptr %5, null
  br i1 %6, label %7, label %15

7:                                                ; preds = %1
  %8 = getelementptr inbounds nuw %class.Variable, ptr %3, i32 0, i32 11
  %9 = load ptr, ptr %8, align 8, !tbaa !86
  %10 = getelementptr inbounds nuw %class.Variable, ptr %9, i32 0, i32 3
  %11 = load ptr, ptr %10, align 8, !tbaa !49
  %12 = getelementptr inbounds nuw %class.Type, ptr %11, i32 0, i32 0
  %13 = load i32, ptr %12, align 8, !tbaa !97
  %14 = icmp eq i32 %13, 2
  br label %15

15:                                               ; preds = %7, %1
  %16 = phi i1 [ false, %1 ], [ %14, %7 ]
  ret i1 %16
}

; Function Attrs: mustprogress uwtable
define dso_local noundef zeroext i1 @_ZNK8Variable8is_constEv(ptr noundef nonnull align 8 dereferenceable(200) %0) #6 align 2 {
  %2 = alloca ptr, align 8
  store ptr %0, ptr %2, align 8, !tbaa !40
  %3 = load ptr, ptr %2, align 8
  %4 = call noundef zeroext i1 @_ZNK8Variable20is_const_after_derefEi(ptr noundef nonnull align 8 dereferenceable(200) %3, i32 noundef 0)
  ret i1 %4
}

; Function Attrs: mustprogress nounwind uwtable
define dso_local noundef ptr @_ZNK8Variable19get_container_unionEv(ptr noundef nonnull align 8 dereferenceable(200) %0) #4 align 2 {
  %2 = alloca ptr, align 8
  %3 = alloca ptr, align 8
  %4 = alloca ptr, align 8
  store ptr %0, ptr %3, align 8, !tbaa !40
  %5 = load ptr, ptr %3, align 8
  %6 = getelementptr inbounds nuw %class.Variable, ptr %5, i32 0, i32 3
  %7 = load ptr, ptr %6, align 8, !tbaa !49
  %8 = icmp eq ptr %7, null
  br i1 %8, label %9, label %10

9:                                                ; preds = %1
  store ptr null, ptr %2, align 8
  br label %30

10:                                               ; preds = %1
  call void @llvm.lifetime.start.p0(i64 8, ptr %4) #3
  store ptr %5, ptr %4, align 8, !tbaa !40
  br label %11

11:                                               ; preds = %24, %10
  %12 = load ptr, ptr %4, align 8, !tbaa !40
  %13 = icmp ne ptr %12, null
  br i1 %13, label %14, label %21

14:                                               ; preds = %11
  %15 = load ptr, ptr %4, align 8, !tbaa !40
  %16 = getelementptr inbounds nuw %class.Variable, ptr %15, i32 0, i32 3
  %17 = load ptr, ptr %16, align 8, !tbaa !49
  %18 = getelementptr inbounds nuw %class.Type, ptr %17, i32 0, i32 0
  %19 = load i32, ptr %18, align 8, !tbaa !97
  %20 = icmp ne i32 %19, 2
  br label %21

21:                                               ; preds = %14, %11
  %22 = phi i1 [ false, %11 ], [ %20, %14 ]
  br i1 %22, label %23, label %28

23:                                               ; preds = %21
  br label %24

24:                                               ; preds = %23
  %25 = load ptr, ptr %4, align 8, !tbaa !40
  %26 = getelementptr inbounds nuw %class.Variable, ptr %25, i32 0, i32 11
  %27 = load ptr, ptr %26, align 8, !tbaa !86
  store ptr %27, ptr %4, align 8, !tbaa !40
  br label %11, !llvm.loop !120

28:                                               ; preds = %21
  %29 = load ptr, ptr %4, align 8, !tbaa !40
  store ptr %29, ptr %2, align 8
  call void @llvm.lifetime.end.p0(i64 8, ptr %4) #3
  br label %30

30:                                               ; preds = %28, %9
  %31 = load ptr, ptr %2, align 8
  ret ptr %31
}

; Function Attrs: mustprogress uwtable
define linkonce_odr dso_local noundef zeroext i1 @_ZNK8Variable21is_inside_union_fieldEv(ptr noundef nonnull align 8 dereferenceable(200) %0) #6 comdat align 2 {
  %2 = alloca ptr, align 8
  store ptr %0, ptr %2, align 8, !tbaa !40
  %3 = load ptr, ptr %2, align 8
  %4 = call noundef zeroext i1 @_ZNK8Variable14is_union_fieldEv(ptr noundef nonnull align 8 dereferenceable(200) %3)
  br i1 %4, label %15, label %5

5:                                                ; preds = %1
  %6 = getelementptr inbounds nuw %class.Variable, ptr %3, i32 0, i32 11
  %7 = load ptr, ptr %6, align 8, !tbaa !86
  %8 = icmp ne ptr %7, null
  br i1 %8, label %9, label %13

9:                                                ; preds = %5
  %10 = getelementptr inbounds nuw %class.Variable, ptr %3, i32 0, i32 11
  %11 = load ptr, ptr %10, align 8, !tbaa !86
  %12 = call noundef zeroext i1 @_ZNK8Variable21is_inside_union_fieldEv(ptr noundef nonnull align 8 dereferenceable(200) %11)
  br label %13

13:                                               ; preds = %9, %5
  %14 = phi i1 [ false, %5 ], [ %12, %9 ]
  br label %15

15:                                               ; preds = %13, %1
  %16 = phi i1 [ true, %1 ], [ %14, %13 ]
  ret i1 %16
}

; Function Attrs: mustprogress uwtable
define dso_local noundef zeroext i1 @_ZNK8Variable17is_valid_volatileEv(ptr noundef nonnull align 8 dereferenceable(200) %0) #6 align 2 {
  %2 = alloca i1, align 1
  %3 = alloca ptr, align 8
  %4 = alloca ptr, align 8
  store ptr %0, ptr %3, align 8, !tbaa !40
  %5 = load ptr, ptr %3, align 8
  %6 = call noundef zeroext i1 @_ZNK8Variable21is_inside_union_fieldEv(ptr noundef nonnull align 8 dereferenceable(200) %5)
  br i1 %6, label %7, label %11

7:                                                ; preds = %1
  call void @llvm.lifetime.start.p0(i64 8, ptr %4) #3
  %8 = call noundef ptr @_ZNK8Variable19get_container_unionEv(ptr noundef nonnull align 8 dereferenceable(200) %5)
  store ptr %8, ptr %4, align 8, !tbaa !40
  %9 = load ptr, ptr %4, align 8, !tbaa !40
  %10 = call noundef zeroext i1 @_ZNK8Variable17is_valid_volatileEv(ptr noundef nonnull align 8 dereferenceable(200) %9)
  store i1 %10, ptr %2, align 1
  call void @llvm.lifetime.end.p0(i64 8, ptr %4) #3
  br label %28

11:                                               ; preds = %1
  %12 = call noundef zeroext i1 @_ZNK8Variable8is_constEv(ptr noundef nonnull align 8 dereferenceable(200) %5)
  br i1 %12, label %13, label %26

13:                                               ; preds = %11
  %14 = getelementptr inbounds nuw %class.Variable, ptr %5, i32 0, i32 4
  %15 = load ptr, ptr %14, align 8, !tbaa !154
  %16 = load ptr, ptr %15, align 8, !tbaa !121
  %17 = getelementptr inbounds ptr, ptr %16, i64 14
  %18 = load ptr, ptr %17, align 8
  %19 = call noundef zeroext i1 %18(ptr noundef nonnull align 8 dereferenceable(24) %15, i32 noundef 0)
  br i1 %19, label %26, label %20

20:                                               ; preds = %13
  %21 = getelementptr inbounds nuw %class.Variable, ptr %5, i32 0, i32 3
  %22 = load ptr, ptr %21, align 8, !tbaa !49
  %23 = getelementptr inbounds nuw %class.Type, ptr %22, i32 0, i32 0
  %24 = load i32, ptr %23, align 8, !tbaa !97
  %25 = icmp ne i32 %24, 1
  br i1 %25, label %26, label %27

26:                                               ; preds = %20, %13, %11
  store i1 true, ptr %2, align 1
  br label %28

27:                                               ; preds = %20
  store i1 false, ptr %2, align 1
  br label %28

28:                                               ; preds = %27, %26, %7
  %29 = load i1, ptr %2, align 1
  ret i1 %29
}