; Function Attrs: mustprogress uwtable
define dso_local noundef zeroext i1 @_ZNK8Variable17is_valid_volatileEv(ptr noundef nonnull align 8 dereferenceable(200) %0) local_unnamed_addr #5 align 2 {
  br label %tailrecurse.outer

tailrecurse.outer:                                ; preds = %.preheader.i, %1
  %.tr.ph = phi ptr [ %0, %1 ], [ %13, %.preheader.i ]
  %2 = getelementptr inbounds nuw i8, ptr %.tr.ph, i64 64
  br label %tailrecurse

tailrecurse:                                      ; preds = %tailrecurse.outer, %9
  br label %tailrecurse.i

tailrecurse.i:                                    ; preds = %_ZNK8Variable14is_union_fieldEv.exit.i, %tailrecurse
  %.tr.i = phi ptr [ %.tr.ph, %tailrecurse ], [ %4, %_ZNK8Variable14is_union_fieldEv.exit.i ]
  %3 = getelementptr inbounds nuw i8, ptr %.tr.i, i64 88
  %4 = load ptr, ptr %3, align 8, !tbaa !80
  %.not.i.not.not.i.not = icmp eq ptr %4, null
  br i1 %.not.i.not.not.i.not, label %_ZNK8Variable21is_inside_union_fieldEv.exit, label %_ZNK8Variable14is_union_fieldEv.exit.i

_ZNK8Variable14is_union_fieldEv.exit.i:           ; preds = %tailrecurse.i
  %5 = getelementptr inbounds nuw i8, ptr %4, i64 64
  %6 = load ptr, ptr %5, align 8, !tbaa !39
  %7 = load i32, ptr %6, align 8, !tbaa !57
  %8 = icmp eq i32 %7, 2
  br i1 %8, label %9, label %tailrecurse.i

9:                                                ; preds = %_ZNK8Variable14is_union_fieldEv.exit.i
  %10 = load ptr, ptr %2, align 8, !tbaa !39, !nonnull !105, !noundef !105
  %11 = load i32, ptr %10, align 8, !tbaa !57
  %.not7.i6 = icmp eq i32 %11, 2
  br i1 %.not7.i6, label %tailrecurse, label %.preheader.i

.preheader.i:                                     ; preds = %9, %.preheader.i
  %.08.i7 = phi ptr [ %13, %.preheader.i ], [ %.tr.ph, %9 ]
  %12 = getelementptr inbounds nuw i8, ptr %.08.i7, i64 88
  %13 = load ptr, ptr %12, align 8, !tbaa !80, !nonnull !105, !noundef !105
  %14 = getelementptr inbounds nuw i8, ptr %13, i64 64
  %15 = load ptr, ptr %14, align 8, !tbaa !39
  %16 = load i32, ptr %15, align 8, !tbaa !57
  %.not7.i = icmp eq i32 %16, 2
  br i1 %.not7.i, label %tailrecurse.outer, label %.preheader.i

_ZNK8Variable21is_inside_union_fieldEv.exit:      ; preds = %tailrecurse.i
  %17 = getelementptr inbounds nuw i8, ptr %.tr.ph, i64 104
  %18 = tail call noundef zeroext i1 @_ZNK12CVQualifiers20is_const_after_derefEi(ptr noundef nonnull align 8 dereferenceable(96) %17, i32 noundef 0)
  br i1 %18, label %_ZNK8Variable8is_constEv.exit.thread, label %19

19:                                               ; preds = %_ZNK8Variable21is_inside_union_fieldEv.exit
  %20 = getelementptr inbounds nuw i8, ptr %.tr.ph, i64 64
  %21 = load ptr, ptr %20, align 8, !tbaa !39
  %.not.i.i = icmp eq ptr %21, null
  br i1 %.not.i.i, label %_ZNK8Variable8is_constEv.exit.thread4, label %_ZNK8Variable8is_constEv.exit

_ZNK8Variable8is_constEv.exit:                    ; preds = %19
  %22 = tail call noundef zeroext i1 @_ZNK4Type21is_const_struct_unionEv(ptr noundef nonnull align 8 dereferenceable(136) %21)
  br i1 %22, label %_ZNK8Variable8is_constEv.exit.thread, label %_ZNK8Variable8is_constEv.exit.thread4

_ZNK8Variable8is_constEv.exit.thread:             ; preds = %_ZNK8Variable21is_inside_union_fieldEv.exit, %_ZNK8Variable8is_constEv.exit
  %23 = getelementptr inbounds nuw i8, ptr %.tr.ph, i64 72
  %24 = load ptr, ptr %23, align 8, !tbaa !137
  %25 = load ptr, ptr %24, align 8, !tbaa !97
  %26 = getelementptr inbounds nuw i8, ptr %25, i64 112
  %27 = load ptr, ptr %26, align 8
  %28 = tail call noundef zeroext i1 %27(ptr noundef nonnull align 8 dereferenceable(24) %24, i32 noundef 0)
  br i1 %28, label %_ZNK8Variable8is_constEv.exit.thread4, label %29

29:                                               ; preds = %_ZNK8Variable8is_constEv.exit.thread
  %30 = getelementptr inbounds nuw i8, ptr %.tr.ph, i64 64
  %31 = load ptr, ptr %30, align 8, !tbaa !39
  %32 = load i32, ptr %31, align 8, !tbaa !57
  %.not = icmp ne i32 %32, 1
  br label %_ZNK8Variable8is_constEv.exit.thread4

_ZNK8Variable8is_constEv.exit.thread4:            ; preds = %19, %29, %_ZNK8Variable8is_constEv.exit, %_ZNK8Variable8is_constEv.exit.thread
  %.0 = phi i1 [ true, %_ZNK8Variable8is_constEv.exit.thread ], [ true, %_ZNK8Variable8is_constEv.exit ], [ %.not, %29 ], [ true, %19 ]
  ret i1 %.0
}